target datalayout = "e-m:e-p270:32:32-p271:32:32-p272:64:64-i64:64-i128:128-f80:128-n8:16:32:64-S128"
target triple = "x86_64-pc-linux-gnu"

%class.AbstractDumpWriter = type <{ ptr, ptr, i64, i64, i8, i8, [6 x i8] }>
%struct.ByteswapImpl.19 = type { i8 }

; Function Attrs: mustprogress nounwind uwtable
define internal noundef i64 @_ZL14alignment_maskImTnNSt9enable_ifIXcvbsr3std11is_integralIT_EE5valueEiE4typeELi0EES1_S1_(i64 noundef %0) #1 {
  %2 = alloca i64, align 8
  store i64 %0, ptr %2, align 8
  %3 = load i64, ptr %2, align 8
  %4 = sub i64 %3, 1
  ret i64 %4
}

; Function Attrs: mustprogress nounwind uwtable
define linkonce_odr hidden noundef zeroext i1 @_Z10is_alignedImmTnNSt9enable_ifIXcvbsr3std11is_integralIT_EE5valueEiE4typeELi0EEbS1_T0_(i64 noundef %0, i64 noundef %1) #1 comdat {
  %3 = alloca i64, align 8
  %4 = alloca i64, align 8
  store i64 %0, ptr %3, align 8
  store i64 %1, ptr %4, align 8
  %5 = load i64, ptr %3, align 8
  %6 = load i64, ptr %4, align 8
  %7 = call noundef i64 @_ZL14alignment_maskImTnNSt9enable_ifIXcvbsr3std11is_integralIT_EE5valueEiE4typeELi0EES1_S1_(i64 noundef %6)
  %8 = and i64 %5, %7
  %9 = icmp eq i64 %8, 0
  ret i1 %9
}

; Function Attrs: mustprogress nounwind uwtable
define linkonce_odr hidden noundef zeroext i1 @_Z10is_alignedIvmEbPT_T0_(ptr noundef %0, i64 noundef %1) #1 comdat {
  %3 = alloca ptr, align 8
  %4 = alloca i64, align 8
  store ptr %0, ptr %3, align 8
  store i64 %1, ptr %4, align 8
  %5 = load ptr, ptr %3, align 8
  %6 = ptrtoint ptr %5 to i64
  %7 = load i64, ptr %4, align 8
  %8 = call noundef zeroext i1 @_Z10is_alignedImmTnNSt9enable_ifIXcvbsr3std11is_integralIT_EE5valueEiE4typeELi0EEbS1_T0_(i64 noundef %6, i64 noundef %7)
  ret i1 %8
}

; Function Attrs: mustprogress nounwind uwtable
define linkonce_odr hidden noundef i64 @_ZNK12ByteswapImplImLm8EEclEm(ptr noundef nonnull align 1 dereferenceable(1) %0, i64 noundef %1) #1 comdat align 2 {
  %3 = alloca ptr, align 8
  %4 = alloca i64, align 8
  store ptr %0, ptr %3, align 8
  store i64 %1, ptr %4, align 8
  %5 = load i64, ptr %4, align 8
  %6 = call i64 @llvm.bswap.i64(i64 %5)
  ret i64 %6
}

; Function Attrs: mustprogress nounwind uwtable
define linkonce_odr hidden void @_ZN5Bytes10put_nativeImEEvPvT_(ptr noundef %0, i64 noundef %1) #1 comdat align 2 {
  %3 = alloca ptr, align 8
  %4 = alloca i64, align 8
  store ptr %0, ptr %3, align 8
  store i64 %1, ptr %4, align 8
  %5 = load ptr, ptr %3, align 8
  %6 = call noundef zeroext i1 @_Z10is_alignedIvmEbPT_T0_(ptr noundef %5, i64 noundef 8)
  br i1 %6, label %7, label %10

7:                                                ; preds = %2
  %8 = load i64, ptr %4, align 8
  %9 = load ptr, ptr %3, align 8
  store i64 %8, ptr %9, align 8
  br label %12

10:                                               ; preds = %2
  %11 = load ptr, ptr %3, align 8
  call void @llvm.memcpy.p0.p0.i64(ptr align 1 %11, ptr align 8 %4, i64 8, i1 false)
  br label %12

12:                                               ; preds = %10, %7
  ret void
}

; Function Attrs: mustprogress nounwind uwtable
define linkonce_odr hidden noundef i64 @_Z8byteswapImTnNSt9enable_ifIXcvbsr3std11is_integralIT_EE5valueEiE4typeELi0EES1_S1_(i64 noundef %0) #1 comdat {
  %2 = alloca i64, align 8
  %3 = alloca %struct.ByteswapImpl.19, align 1
  store i64 %0, ptr %2, align 8
  %4 = load i64, ptr %2, align 8
  %5 = call noundef i64 @_ZNK12ByteswapImplImLm8EEclEm(ptr noundef nonnull align 1 dereferenceable(1) %3, i64 noundef %4)
  ret i64 %5
}

; Function Attrs: mustprogress nounwind uwtable
define linkonce_odr hidden noundef zeroext i1 @_ZN6Endian31is_Java_byte_ordering_differentEv() #1 comdat align 2 {
  ret i1 true
}

; Function Attrs: mustprogress nounwind uwtable
define linkonce_odr hidden void @_ZN18AbstractDumpWriter12set_positionEm(ptr noundef nonnull align 8 dereferenceable(34) %0, i64 noundef %1) #1 comdat align 2 {
  %3 = alloca ptr, align 8
  %4 = alloca i64, align 8
  store ptr %0, ptr %3, align 8
  store i64 %1, ptr %4, align 8
  %5 = load ptr, ptr %3, align 8
  %6 = load i64, ptr %4, align 8
  %7 = getelementptr inbounds %class.AbstractDumpWriter, ptr %5, i32 0, i32 3
  store i64 %6, ptr %7, align 8
  ret void
}

; Function Attrs: mustprogress nounwind uwtable
define linkonce_odr hidden noundef ptr @_ZNK18AbstractDumpWriter6bufferEv(ptr noundef nonnull align 8 dereferenceable(34) %0) #1 comdat align 2 {
  %2 = alloca ptr, align 8
  store ptr %0, ptr %2, align 8
  %3 = load ptr, ptr %2, align 8
  %4 = getelementptr inbounds %class.AbstractDumpWriter, ptr %3, i32 0, i32 1
  %5 = load ptr, ptr %4, align 8
  ret ptr %5
}

; Function Attrs: mustprogress nounwind uwtable
define linkonce_odr hidden noundef i64 @_ZNK18AbstractDumpWriter8positionEv(ptr noundef nonnull align 8 dereferenceable(34) %0) #1 comdat align 2 {
  %2 = alloca ptr, align 8
  store ptr %0, ptr %2, align 8
  %3 = load ptr, ptr %2, align 8
  %4 = getelementptr inbounds %class.AbstractDumpWriter, ptr %3, i32 0, i32 3
  %5 = load i64, ptr %4, align 8
  ret i64 %5
}

; Function Attrs: mustprogress nounwind uwtable
define linkonce_odr hidden noundef i64 @_ZNK18AbstractDumpWriter11buffer_sizeEv(ptr noundef nonnull align 8 dereferenceable(34) %0) #1 comdat align 2 {
  %2 = alloca ptr, align 8
  store ptr %0, ptr %2, align 8
  %3 = load ptr, ptr %2, align 8
  %4 = getelementptr inbounds %class.AbstractDumpWriter, ptr %3, i32 0, i32 2
  %5 = load i64, ptr %4, align 8
  ret i64 %5
}

; Function Attrs: mustprogress nounwind uwtable
define linkonce_odr hidden void @_ZN5Bytes8put_JavaImEEvPhT_(ptr noundef %0, i64 noundef %1) #1 comdat align 2 {
  %3 = alloca ptr, align 8
  %4 = alloca i64, align 8
  store ptr %0, ptr %3, align 8
  store i64 %1, ptr %4, align 8
  %5 = call noundef zeroext i1 @_ZN6Endian31is_Java_byte_ordering_differentEv()
  br i1 %5, label %6, label %9

6:                                                ; preds = %2
  %7 = load i64, ptr %4, align 8
  %8 = call noundef i64 @_Z8byteswapImTnNSt9enable_ifIXcvbsr3std11is_integralIT_EE5valueEiE4typeELi0EES1_S1_(i64 noundef %7)
  store i64 %8, ptr %4, align 8
  br label %9

9:                                                ; preds = %6, %2
  %10 = load ptr, ptr %3, align 8
  %11 = load i64, ptr %4, align 8
  call void @_ZN5Bytes10put_nativeImEEvPvT_(ptr noundef %10, i64 noundef %11)
  ret void
}

; Function Attrs: mustprogress nounwind uwtable
define hidden void @_ZN18AbstractDumpWriter10write_fastEPKvm(ptr noundef nonnull align 8 dereferenceable(34) %0, ptr noundef %1, i64 noundef %2) #1 align 2 {
  %4 = alloca ptr, align 8
  %5 = alloca ptr, align 8
  %6 = alloca i64, align 8
  store ptr %0, ptr %4, align 8
  store ptr %1, ptr %5, align 8
  store i64 %2, ptr %6, align 8
  %7 = load ptr, ptr %4, align 8
  %8 = call noundef ptr @_ZNK18AbstractDumpWriter6bufferEv(ptr noundef nonnull align 8 dereferenceable(34) %7)
  %9 = call noundef i64 @_ZNK18AbstractDumpWriter8positionEv(ptr noundef nonnull align 8 dereferenceable(34) %7)
  %10 = getelementptr inbounds i8, ptr %8, i64 %9
  %11 = load ptr, ptr %5, align 8
  %12 = load i64, ptr %6, align 8
  call void @llvm.memcpy.p0.p0.i64(ptr align 1 %10, ptr align 1 %11, i64 %12, i1 false)
  %13 = call noundef i64 @_ZNK18AbstractDumpWriter8positionEv(ptr noundef nonnull align 8 dereferenceable(34) %7)
  %14 = load i64, ptr %6, align 8
  %15 = add i64 %13, %14
  call void @_ZN18AbstractDumpWriter12set_positionEm(ptr noundef nonnull align 8 dereferenceable(34) %7, i64 noundef %15)
  ret void
}

; Function Attrs: mustprogress nounwind uwtable
define hidden noundef zeroext i1 @_ZN18AbstractDumpWriter14can_write_fastEm(ptr noundef nonnull align 8 dereferenceable(34) %0, i64 noundef %1) #1 align 2 {
  %3 = alloca ptr, align 8
  %4 = alloca i64, align 8
  store ptr %0, ptr %3, align 8
  store i64 %1, ptr %4, align 8
  %5 = load ptr, ptr %3, align 8
  %6 = call noundef i64 @_ZNK18AbstractDumpWriter11buffer_sizeEv(ptr noundef nonnull align 8 dereferenceable(34) %5)
  %7 = call noundef i64 @_ZNK18AbstractDumpWriter8positionEv(ptr noundef nonnull align 8 dereferenceable(34) %5)
  %8 = sub i64 %6, %7
  %9 = load i64, ptr %4, align 8
  %10 = icmp uge i64 %8, %9
  ret i1 %10
}

; Function Attrs: mustprogress nounwind uwtable
define linkonce_odr hidden void @_ZN5Bytes11put_Java_u8EPhm(ptr noundef %0, i64 noundef %1) #1 comdat align 2 {
  %3 = alloca ptr, align 8
  %4 = alloca i64, align 8
  store ptr %0, ptr %3, align 8
  store i64 %1, ptr %4, align 8
  %5 = load ptr, ptr %3, align 8
  %6 = load i64, ptr %4, align 8
  call void @_ZN5Bytes8put_JavaImEEvPhT_(ptr noundef %5, i64 noundef %6)
  ret void
}

; Function Attrs: mustprogress nounwind uwtable
define hidden void @_ZN18AbstractDumpWriter8write_u8Em(ptr noundef nonnull align 8 dereferenceable(34) %0, i64 noundef %1) #1 align 2 {
  %3 = alloca ptr, align 8
  %4 = alloca i64, align 8
  %5 = alloca i64, align 8
  store ptr %0, ptr %3, align 8
  store i64 %1, ptr %4, align 8
  %6 = load ptr, ptr %3, align 8
  %7 = load i64, ptr %4, align 8
  call void @_ZN5Bytes11put_Java_u8EPhm(ptr noundef %5, i64 noundef %7)
  br label %8

8:                                                ; preds = %2
  %9 = call noundef zeroext i1 @_ZN18AbstractDumpWriter14can_write_fastEm(ptr noundef nonnull align 8 dereferenceable(34) %6, i64 noundef 8)
  br i1 %9, label %10, label %11

10:                                               ; preds = %8
  call void @_ZN18AbstractDumpWriter10write_fastEPKvm(ptr noundef nonnull align 8 dereferenceable(34) %6, ptr noundef %5, i64 noundef 8)
  br label %15

11:                                               ; preds = %8
  %12 = load ptr, ptr %6, align 8
  %13 = getelementptr inbounds ptr, ptr %12, i64 2
  %14 = load ptr, ptr %13, align 8
  call void %14(ptr noundef nonnull align 8 dereferenceable(34) %6, ptr noundef %5, i64 noundef 8)
  br label %15

15:                                               ; preds = %11, %10
  br label %16

16:                                               ; preds = %15
  ret void
}

; Function Attrs: mustprogress nounwind uwtable
define hidden void @_ZN18AbstractDumpWriter13write_addressEPh(ptr noundef nonnull align 8 dereferenceable(34) %0, ptr noundef %1) #1 align 2 {
  %3 = alloca ptr, align 8
  %4 = alloca ptr, align 8
  store ptr %0, ptr %3, align 8
  store ptr %1, ptr %4, align 8
  %5 = load ptr, ptr %3, align 8
  %6 = load ptr, ptr %4, align 8
  %7 = ptrtoint ptr %6 to i64
  call void @_ZN18AbstractDumpWriter8write_u8Em(ptr noundef nonnull align 8 dereferenceable(34) %5, i64 noundef %7)
  ret void
}

; Function Attrs: mustprogress nounwind uwtable
define hidden void @_ZN18AbstractDumpWriter14write_symbolIDEP6Symbol(ptr noundef nonnull align 8 dereferenceable(34) %0, ptr noundef %1) #1 align 2 {
  %3 = alloca ptr, align 8
  %4 = alloca ptr, align 8
  store ptr %0, ptr %3, align 8
  store ptr %1, ptr %4, align 8
  %5 = load ptr, ptr %3, align 8
  %6 = load ptr, ptr %4, align 8
  %7 = ptrtoint ptr %6 to i64
  %8 = inttoptr i64 %7 to ptr
  call void @_ZN18AbstractDumpWriter13write_addressEPh(ptr noundef nonnull align 8 dereferenceable(34) %5, ptr noundef %8)
  ret void
}