; Function Attrs: mustprogress nounwind uwtable
define hidden void @_ZN18AbstractDumpWriter14write_symbolIDEP6Symbol(ptr noundef nonnull align 8 dereferenceable(34) %0, ptr noundef %1) local_unnamed_addr #3 align 2 {
  %3 = alloca i64, align 8
  %4 = ptrtoint ptr %1 to i64
  call void @llvm.lifetime.start.p0(i64 8, ptr nonnull %3)
  %5 = tail call noundef i64 @llvm.bswap.i64(i64 %4)
  store i64 %5, ptr %3, align 8
  %6 = getelementptr inbounds i8, ptr %0, i64 16
  %7 = load i64, ptr %6, align 8
  %8 = getelementptr inbounds i8, ptr %0, i64 24
  %9 = load i64, ptr %8, align 8
  %10 = sub i64 %7, %9
  %11 = icmp ugt i64 %10, 7
  br i1 %11, label %12, label %18

12:                                               ; preds = %2
  %13 = getelementptr inbounds i8, ptr %0, i64 8
  %14 = load ptr, ptr %13, align 8
  %15 = getelementptr inbounds i8, ptr %14, i64 %9
  store i64 %5, ptr %15, align 1
  %16 = load i64, ptr %8, align 8
  %17 = add i64 %16, 8
  store i64 %17, ptr %8, align 8
  br label %_ZN18AbstractDumpWriter13write_addressEPh.exit

18:                                               ; preds = %2
  %19 = load ptr, ptr %0, align 8
  %20 = getelementptr inbounds i8, ptr %19, i64 16
  %21 = load ptr, ptr %20, align 8
  call void %21(ptr noundef nonnull align 8 dereferenceable(34) %0, ptr noundef nonnull %3, i64 noundef 8) #19
  br label %_ZN18AbstractDumpWriter13write_addressEPh.exit

_ZN18AbstractDumpWriter13write_addressEPh.exit:   ; preds = %12, %18
  call void @llvm.lifetime.end.p0(i64 8, ptr nonnull %3)
  ret void
}